target datalayout = "e-m:e-p270:32:32-p271:32:32-p272:64:64-i64:64-i128:128-f80:128-n8:16:32:64-S128"
target triple = "x86_64-pc-linux-gnu"

%"class.std::__cxx11::basic_string" = type { %"struct.std::__cxx11::basic_string<char>::_Alloc_hider", i64, %union.anon }
%"struct.std::__cxx11::basic_string<char>::_Alloc_hider" = type { ptr }
%union.anon = type { i64, [8 x i8] }
%"class.i18n::phonenumbers::PhoneNumberMatcher" = type <{ ptr, ptr, ptr, %"class.std::__cxx11::basic_string", %"class.std::__cxx11::basic_string", i32, i32, i32, [4 x i8], %"class.boost::scoped_ptr", i32, i8, [3 x i8] }>
%"class.boost::scoped_ptr" = type { ptr }
%"class.boost::scoped_ptr.13" = type { ptr }
%"class.i18n::phonenumbers::PhoneNumberMatcherRegExps" = type { %"class.i18n::phonenumbers::Singleton.8", %"class.std::__cxx11::basic_string", %"class.std::__cxx11::basic_string", %"class.std::__cxx11::basic_string", %"class.std::__cxx11::basic_string", %"class.std::__cxx11::basic_string", %"class.std::__cxx11::basic_string", %"class.std::__cxx11::basic_string", %"class.std::__cxx11::basic_string", i32, %"class.std::__cxx11::basic_string", %"class.std::__cxx11::basic_string", %"class.std::__cxx11::basic_string", %"class.std::__cxx11::basic_string", %"class.std::__cxx11::basic_string", %"class.boost::scoped_ptr.9", %"class.boost::scoped_ptr.9", %"class.i18n::phonenumbers::RegExpCache", %"class.boost::scoped_ptr.11", %"class.boost::scoped_ptr.11", %"class.boost::scoped_ptr.11", %"class.boost::scoped_ptr.11", %"class.boost::scoped_ptr.11", %"class.boost::scoped_ptr.12", %"class.boost::scoped_ptr.11", %"class.boost::scoped_ptr.11", %"class.boost::scoped_ptr.11", %"class.boost::scoped_ptr.11" }
%"class.i18n::phonenumbers::Singleton.8" = type { ptr }
%"class.boost::scoped_ptr.9" = type { ptr }
%"class.i18n::phonenumbers::RegExpCache" = type { ptr, %"class.boost::mutex", %"class.boost::scoped_ptr.10" }
%"class.boost::mutex" = type { %union.pthread_mutex_t }
%union.pthread_mutex_t = type { %struct.__pthread_mutex_s }
%struct.__pthread_mutex_s = type { i32, i32, i32, i32, i32, i16, i16, %struct.__pthread_internal_list }
%struct.__pthread_internal_list = type { ptr, ptr }
%"class.boost::scoped_ptr.10" = type { ptr }
%"class.boost::scoped_ptr.12" = type { ptr }
%"class.boost::scoped_ptr.11" = type { ptr }

; Function Attrs: mustprogress nounwind uwtable
define linkonce_odr dso_local void @_ZN5boost14checked_deleteIN4i18n12phonenumbers11RegExpInputEEEvPT_(ptr noundef %0) #5 comdat {
  %2 = alloca ptr, align 8
  store ptr %0, ptr %2, align 8
  %3 = load ptr, ptr %2, align 8
  %4 = icmp eq ptr %3, null
  br i1 %4, label %9, label %5

5:                                                ; preds = %1
  %6 = load ptr, ptr %3, align 8
  %7 = getelementptr inbounds ptr, ptr %6, i64 1
  %8 = load ptr, ptr %7, align 8
  call void %8(ptr noundef nonnull align 8 dereferenceable(8) %3) #3
  br label %9

9:                                                ; preds = %5, %1
  ret void
}

; Function Attrs: mustprogress nounwind uwtable
define linkonce_odr dso_local void @_ZN5boost10scoped_ptrIN4i18n12phonenumbers11RegExpInputEED2Ev(ptr noundef nonnull align 8 dereferenceable(8) %0) unnamed_addr #5 comdat align 2 {
  %2 = alloca ptr, align 8
  store ptr %0, ptr %2, align 8
  %3 = load ptr, ptr %2, align 8
  %4 = getelementptr inbounds %"class.boost::scoped_ptr.13", ptr %3, i32 0, i32 0
  %5 = load ptr, ptr %4, align 8
  call void @_ZN5boost14checked_deleteIN4i18n12phonenumbers11RegExpInputEEEvPT_(ptr noundef %5) #3
  ret void
}

; Function Attrs: mustprogress uwtable
define linkonce_odr dso_local noundef zeroext i1 @_ZNK4i18n12phonenumbers6RegExp7ConsumeEPNS0_11RegExpInputE(ptr noundef nonnull align 8 dereferenceable(8) %0, ptr noundef %1) #4 comdat align 2 {
  %3 = alloca ptr, align 8
  %4 = alloca ptr, align 8
  store ptr %0, ptr %3, align 8
  store ptr %1, ptr %4, align 8
  %5 = load ptr, ptr %3, align 8
  %6 = load ptr, ptr %4, align 8
  %7 = load ptr, ptr %5, align 8
  %8 = getelementptr inbounds ptr, ptr %7, i64 2
  %9 = load ptr, ptr %8, align 8
  %10 = call noundef zeroext i1 %9(ptr noundef nonnull align 8 dereferenceable(8) %5, ptr noundef %6, i1 noundef zeroext true, ptr noundef null, ptr noundef null, ptr noundef null, ptr noundef null, ptr noundef null, ptr noundef null)
  ret i1 %10
}

; Function Attrs: mustprogress nounwind uwtable
define linkonce_odr dso_local noundef ptr @_ZNK5boost10scoped_ptrIN4i18n12phonenumbers11RegExpInputEE3getEv(ptr noundef nonnull align 8 dereferenceable(8) %0) #5 comdat align 2 {
  %2 = alloca ptr, align 8
  store ptr %0, ptr %2, align 8
  %3 = load ptr, ptr %2, align 8
  %4 = getelementptr inbounds %"class.boost::scoped_ptr.13", ptr %3, i32 0, i32 0
  %5 = load ptr, ptr %4, align 8
  ret ptr %5
}

; Function Attrs: mustprogress nounwind uwtable
define linkonce_odr dso_local void @_ZN5boost10scoped_ptrIN4i18n12phonenumbers11RegExpInputEEC2EPS3_(ptr noundef nonnull align 8 dereferenceable(8) %0, ptr noundef %1) unnamed_addr #5 comdat align 2 {
  %3 = alloca ptr, align 8
  %4 = alloca ptr, align 8
  store ptr %0, ptr %3, align 8
  store ptr %1, ptr %4, align 8
  %5 = load ptr, ptr %3, align 8
  %6 = getelementptr inbounds %"class.boost::scoped_ptr.13", ptr %5, i32 0, i32 0
  %7 = load ptr, ptr %4, align 8
  store ptr %7, ptr %6, align 8
  ret void
}

; Function Attrs: mustprogress nounwind uwtable
define linkonce_odr dso_local noundef ptr @_ZNK5boost10scoped_ptrIKN4i18n12phonenumbers21AbstractRegExpFactoryEEptEv(ptr noundef nonnull align 8 dereferenceable(8) %0) #5 comdat align 2 {
  %2 = alloca ptr, align 8
  store ptr %0, ptr %2, align 8
  %3 = load ptr, ptr %2, align 8
  %4 = getelementptr inbounds %"class.boost::scoped_ptr.9", ptr %3, i32 0, i32 0
  %5 = load ptr, ptr %4, align 8
  ret ptr %5
}

; Function Attrs: mustprogress uwtable
define linkonce_odr dso_local noundef zeroext i1 @_ZNK4i18n12phonenumbers6RegExp12PartialMatchERKNSt7__cxx1112basic_stringIcSt11char_traitsIcESaIcEEE(ptr noundef nonnull align 8 dereferenceable(8) %0, ptr noundef nonnull align 8 dereferenceable(32) %1) #4 comdat align 2 {
  %3 = alloca ptr, align 8
  %4 = alloca ptr, align 8
  store ptr %0, ptr %3, align 8
  store ptr %1, ptr %4, align 8
  %5 = load ptr, ptr %3, align 8
  %6 = load ptr, ptr %4, align 8
  %7 = load ptr, ptr %5, align 8
  %8 = getelementptr inbounds ptr, ptr %7, i64 3
  %9 = load ptr, ptr %8, align 8
  %10 = call noundef zeroext i1 %9(ptr noundef nonnull align 8 dereferenceable(8) %5, ptr noundef nonnull align 8 dereferenceable(32) %6, i1 noundef zeroext false, ptr noundef null)
  ret i1 %10
}

; Function Attrs: mustprogress nounwind uwtable
define linkonce_odr dso_local noundef ptr @_ZNK5boost10scoped_ptrIKN4i18n12phonenumbers6RegExpEEptEv(ptr noundef nonnull align 8 dereferenceable(8) %0) #5 comdat align 2 {
  %2 = alloca ptr, align 8
  store ptr %0, ptr %2, align 8
  %3 = load ptr, ptr %2, align 8
  %4 = getelementptr inbounds %"class.boost::scoped_ptr.11", ptr %3, i32 0, i32 0
  %5 = load ptr, ptr %4, align 8
  ret ptr %5
}

; Function Attrs: mustprogress uwtable
define dso_local noundef zeroext i1 @_ZN4i18n12phonenumbers18PhoneNumberMatcher12ExtractMatchERKNSt7__cxx1112basic_stringIcSt11char_traitsIcESaIcEEEiPNS0_16PhoneNumberMatchE(ptr noundef nonnull align 8 dereferenceable(117) %0, ptr noundef nonnull align 8 dereferenceable(32) %1, i32 noundef %2, ptr noundef %3) #4 align 2 personality ptr @__gxx_personality_v0 {
  %5 = alloca i1, align 1
  %6 = alloca ptr, align 8
  %7 = alloca ptr, align 8
  %8 = alloca i32, align 4
  %9 = alloca ptr, align 8
  %10 = alloca %"class.boost::scoped_ptr.13", align 8
  %11 = alloca %"class.std::__cxx11::basic_string", align 8
  %12 = alloca ptr, align 8
  %13 = alloca i32, align 4
  %14 = alloca i32, align 4
  store ptr %0, ptr %6, align 8
  store ptr %1, ptr %7, align 8
  store i32 %2, ptr %8, align 4
  store ptr %3, ptr %9, align 8
  %15 = load ptr, ptr %6, align 8
  %16 = getelementptr inbounds %"class.i18n::phonenumbers::PhoneNumberMatcher", ptr %15, i32 0, i32 0
  %17 = load ptr, ptr %16, align 8
  %18 = getelementptr inbounds %"class.i18n::phonenumbers::PhoneNumberMatcherRegExps", ptr %17, i32 0, i32 19
  %19 = call noundef ptr @_ZNK5boost10scoped_ptrIKN4i18n12phonenumbers6RegExpEEptEv(ptr noundef nonnull align 8 dereferenceable(8) %18) #3
  %20 = load ptr, ptr %7, align 8
  %21 = call noundef zeroext i1 @_ZNK4i18n12phonenumbers6RegExp12PartialMatchERKNSt7__cxx1112basic_stringIcSt11char_traitsIcESaIcEEE(ptr noundef nonnull align 8 dereferenceable(8) %19, ptr noundef nonnull align 8 dereferenceable(32) %20)
  br i1 %21, label %22, label %23

22:                                               ; preds = %4
  store i1 false, ptr %5, align 1
  br label %77

23:                                               ; preds = %4
  %24 = getelementptr inbounds %"class.i18n::phonenumbers::PhoneNumberMatcher", ptr %15, i32 0, i32 0
  %25 = load ptr, ptr %24, align 8
  %26 = getelementptr inbounds %"class.i18n::phonenumbers::PhoneNumberMatcherRegExps", ptr %25, i32 0, i32 20
  %27 = call noundef ptr @_ZNK5boost10scoped_ptrIKN4i18n12phonenumbers6RegExpEEptEv(ptr noundef nonnull align 8 dereferenceable(8) %26) #3
  %28 = load ptr, ptr %7, align 8
  %29 = call noundef zeroext i1 @_ZNK4i18n12phonenumbers6RegExp12PartialMatchERKNSt7__cxx1112basic_stringIcSt11char_traitsIcESaIcEEE(ptr noundef nonnull align 8 dereferenceable(8) %27, ptr noundef nonnull align 8 dereferenceable(32) %28)
  br i1 %29, label %30, label %66

30:                                               ; preds = %23
  %31 = getelementptr inbounds %"class.i18n::phonenumbers::PhoneNumberMatcher", ptr %15, i32 0, i32 0
  %32 = load ptr, ptr %31, align 8
  %33 = getelementptr inbounds %"class.i18n::phonenumbers::PhoneNumberMatcherRegExps", ptr %32, i32 0, i32 16
  %34 = call noundef ptr @_ZNK5boost10scoped_ptrIKN4i18n12phonenumbers21AbstractRegExpFactoryEEptEv(ptr noundef nonnull align 8 dereferenceable(8) %33) #3
  %35 = getelementptr inbounds %"class.i18n::phonenumbers::PhoneNumberMatcher", ptr %15, i32 0, i32 3
  %36 = load i32, ptr %8, align 4
  %37 = sext i32 %36 to i64
  %38 = load ptr, ptr %7, align 8
  %39 = call noundef i64 @_ZNKSt7__cxx1112basic_stringIcSt11char_traitsIcESaIcEE4sizeEv(ptr noundef nonnull align 8 dereferenceable(32) %38) #3
  %40 = add i64 %37, %39
  call void @_ZNKSt7__cxx1112basic_stringIcSt11char_traitsIcESaIcEE6substrEmm(ptr dead_on_unwind writable sret(%"class.std::__cxx11::basic_string") align 8 %11, ptr noundef nonnull align 8 dereferenceable(32) %35, i64 noundef %40, i64 noundef -1)
  %41 = load ptr, ptr %34, align 8
  %42 = getelementptr inbounds ptr, ptr %41, i64 2
  %43 = load ptr, ptr %42, align 8
  %44 = invoke noundef ptr %43(ptr noundef nonnull align 8 dereferenceable(8) %34, ptr noundef nonnull align 8 dereferenceable(32) %11)
          to label %45 unwind label %54

45:                                               ; preds = %30
  call void @_ZN5boost10scoped_ptrIN4i18n12phonenumbers11RegExpInputEEC2EPS3_(ptr noundef nonnull align 8 dereferenceable(8) %10, ptr noundef %44) #3
  call void @_ZNSt7__cxx1112basic_stringIcSt11char_traitsIcESaIcEED1Ev(ptr noundef nonnull align 8 dereferenceable(32) %11) #3
  %46 = getelementptr inbounds %"class.i18n::phonenumbers::PhoneNumberMatcher", ptr %15, i32 0, i32 0
  %47 = load ptr, ptr %46, align 8
  %48 = getelementptr inbounds %"class.i18n::phonenumbers::PhoneNumberMatcherRegExps", ptr %47, i32 0, i32 21
  %49 = call noundef ptr @_ZNK5boost10scoped_ptrIKN4i18n12phonenumbers6RegExpEEptEv(ptr noundef nonnull align 8 dereferenceable(8) %48) #3
  %50 = call noundef ptr @_ZNK5boost10scoped_ptrIN4i18n12phonenumbers11RegExpInputEE3getEv(ptr noundef nonnull align 8 dereferenceable(8) %10) #3
  %51 = invoke noundef zeroext i1 @_ZNK4i18n12phonenumbers6RegExp7ConsumeEPNS0_11RegExpInputE(ptr noundef nonnull align 8 dereferenceable(8) %49, ptr noundef %50)
          to label %52 unwind label %58

52:                                               ; preds = %45
  br i1 %51, label %53, label %62

53:                                               ; preds = %52
  store i1 false, ptr %5, align 1
  store i32 1, ptr %14, align 4
  br label %63

54:                                               ; preds = %30
  %55 = landingpad { ptr, i32 }
          cleanup
  %56 = extractvalue { ptr, i32 } %55, 0
  store ptr %56, ptr %12, align 8
  %57 = extractvalue { ptr, i32 } %55, 1
  store i32 %57, ptr %13, align 4
  call void @_ZNSt7__cxx1112basic_stringIcSt11char_traitsIcESaIcEED1Ev(ptr noundef nonnull align 8 dereferenceable(32) %11) #3
  br label %79

58:                                               ; preds = %45
  %59 = landingpad { ptr, i32 }
          cleanup
  %60 = extractvalue { ptr, i32 } %59, 0
  store ptr %60, ptr %12, align 8
  %61 = extractvalue { ptr, i32 } %59, 1
  store i32 %61, ptr %13, align 4
  call void @_ZN5boost10scoped_ptrIN4i18n12phonenumbers11RegExpInputEED2Ev(ptr noundef nonnull align 8 dereferenceable(8) %10) #3
  br label %79

62:                                               ; preds = %52
  store i32 0, ptr %14, align 4
  br label %63

63:                                               ; preds = %62, %53
  call void @_ZN5boost10scoped_ptrIN4i18n12phonenumbers11RegExpInputEED2Ev(ptr noundef nonnull align 8 dereferenceable(8) %10) #3
  %64 = load i32, ptr %14, align 4
  switch i32 %64, label %84 [
    i32 0, label %65
    i32 1, label %77
  ]

65:                                               ; preds = %63
  br label %66

66:                                               ; preds = %65, %23
  %67 = load ptr, ptr %7, align 8
  %68 = load i32, ptr %8, align 4
  %69 = load ptr, ptr %9, align 8
  %70 = call noundef zeroext i1 @_ZN4i18n12phonenumbers18PhoneNumberMatcher14ParseAndVerifyERKNSt7__cxx1112basic_stringIcSt11char_traitsIcESaIcEEEiPNS0_16PhoneNumberMatchE(ptr noundef nonnull align 8 dereferenceable(117) %15, ptr noundef nonnull align 8 dereferenceable(32) %67, i32 noundef %68, ptr noundef %69)
  br i1 %70, label %71, label %72

71:                                               ; preds = %66
  store i1 true, ptr %5, align 1
  br label %77

72:                                               ; preds = %66
  %73 = load ptr, ptr %7, align 8
  %74 = load i32, ptr %8, align 4
  %75 = load ptr, ptr %9, align 8
  %76 = call noundef zeroext i1 @_ZN4i18n12phonenumbers18PhoneNumberMatcher17ExtractInnerMatchERKNSt7__cxx1112basic_stringIcSt11char_traitsIcESaIcEEEiPNS0_16PhoneNumberMatchE(ptr noundef nonnull align 8 dereferenceable(117) %15, ptr noundef nonnull align 8 dereferenceable(32) %73, i32 noundef %74, ptr noundef %75)
  store i1 %76, ptr %5, align 1
  br label %77

77:                                               ; preds = %72, %71, %63, %22
  %78 = load i1, ptr %5, align 1
  ret i1 %78

79:                                               ; preds = %58, %54
  %80 = load ptr, ptr %12, align 8
  %81 = load i32, ptr %13, align 4
  %82 = insertvalue { ptr, i32 } poison, ptr %80, 0
  %83 = insertvalue { ptr, i32 } %82, i32 %81, 1
  resume { ptr, i32 } %83

84:                                               ; preds = %63
  unreachable
}