; Function Attrs: mustprogress uwtable
define dso_local noundef zeroext i1 @_ZN4i18n12phonenumbers18PhoneNumberMatcher12ExtractMatchERKNSt7__cxx1112basic_stringIcSt11char_traitsIcESaIcEEEiPNS0_16PhoneNumberMatchE(ptr noundef nonnull align 8 dereferenceable(117) %0, ptr noundef nonnull align 8 dereferenceable(32) %1, i32 noundef %2, ptr noundef %3) local_unnamed_addr #4 align 2 personality ptr @__gxx_personality_v0 {
  %5 = alloca %"class.std::__cxx11::basic_string", align 8
  %6 = load ptr, ptr %0, align 8
  %7 = getelementptr inbounds i8, ptr %6, i64 512
  %8 = load ptr, ptr %7, align 8
  %9 = load ptr, ptr %8, align 8
  %10 = getelementptr inbounds i8, ptr %9, i64 24
  %11 = load ptr, ptr %10, align 8
  %12 = tail call noundef zeroext i1 %11(ptr noundef nonnull align 8 dereferenceable(8) %8, ptr noundef nonnull align 8 dereferenceable(32) %1, i1 noundef zeroext false, ptr noundef null)
  br i1 %12, label %59, label %13

13:                                               ; preds = %4
  %14 = load ptr, ptr %0, align 8
  %15 = getelementptr inbounds i8, ptr %14, i64 520
  %16 = load ptr, ptr %15, align 8
  %17 = load ptr, ptr %16, align 8
  %18 = getelementptr inbounds i8, ptr %17, i64 24
  %19 = load ptr, ptr %18, align 8
  %20 = tail call noundef zeroext i1 %19(ptr noundef nonnull align 8 dereferenceable(8) %16, ptr noundef nonnull align 8 dereferenceable(32) %1, i1 noundef zeroext false, ptr noundef null)
  br i1 %20, label %21, label %55

21:                                               ; preds = %13
  %22 = load ptr, ptr %0, align 8
  %23 = getelementptr inbounds i8, ptr %22, i64 440
  %24 = load ptr, ptr %23, align 8
  %25 = getelementptr inbounds i8, ptr %0, i64 24
  %26 = sext i32 %2 to i64
  %27 = tail call noundef i64 @_ZNKSt7__cxx1112basic_stringIcSt11char_traitsIcESaIcEE4sizeEv(ptr noundef nonnull align 8 dereferenceable(32) %1) #19
  %28 = add i64 %27, %26
  call void @_ZNKSt7__cxx1112basic_stringIcSt11char_traitsIcESaIcEE6substrEmm(ptr dead_on_unwind nonnull writable sret(%"class.std::__cxx11::basic_string") align 8 %5, ptr noundef nonnull align 8 dereferenceable(32) %25, i64 noundef %28, i64 noundef -1)
  %29 = load ptr, ptr %24, align 8
  %30 = getelementptr inbounds i8, ptr %29, i64 16
  %31 = load ptr, ptr %30, align 8
  %32 = invoke noundef ptr %31(ptr noundef nonnull align 8 dereferenceable(8) %24, ptr noundef nonnull align 8 dereferenceable(32) %5)
          to label %33 unwind label %41

33:                                               ; preds = %21
  call void @_ZNSt7__cxx1112basic_stringIcSt11char_traitsIcESaIcEED1Ev(ptr noundef nonnull align 8 dereferenceable(32) %5) #19
  %34 = load ptr, ptr %0, align 8
  %35 = getelementptr inbounds i8, ptr %34, i64 528
  %36 = load ptr, ptr %35, align 8
  %37 = load ptr, ptr %36, align 8
  %38 = getelementptr inbounds i8, ptr %37, i64 16
  %39 = load ptr, ptr %38, align 8
  %40 = invoke noundef zeroext i1 %39(ptr noundef nonnull align 8 dereferenceable(8) %36, ptr noundef %32, i1 noundef zeroext true, ptr noundef null, ptr noundef null, ptr noundef null, ptr noundef null, ptr noundef null, ptr noundef null)
          to label %_ZNK4i18n12phonenumbers6RegExp7ConsumeEPNS0_11RegExpInputE.exit unwind label %43

41:                                               ; preds = %21
  %42 = landingpad { ptr, i32 }
          cleanup
  call void @_ZNSt7__cxx1112basic_stringIcSt11char_traitsIcESaIcEED1Ev(ptr noundef nonnull align 8 dereferenceable(32) %5) #19
  br label %_ZN5boost10scoped_ptrIN4i18n12phonenumbers11RegExpInputEED2Ev.exit

43:                                               ; preds = %33
  %44 = landingpad { ptr, i32 }
          cleanup
  %45 = icmp eq ptr %32, null
  br i1 %45, label %_ZN5boost10scoped_ptrIN4i18n12phonenumbers11RegExpInputEED2Ev.exit, label %46

46:                                               ; preds = %43
  %47 = load ptr, ptr %32, align 8
  %48 = getelementptr inbounds i8, ptr %47, i64 8
  %49 = load ptr, ptr %48, align 8
  call void %49(ptr noundef nonnull align 8 dereferenceable(8) %32) #19
  br label %_ZN5boost10scoped_ptrIN4i18n12phonenumbers11RegExpInputEED2Ev.exit

_ZNK4i18n12phonenumbers6RegExp7ConsumeEPNS0_11RegExpInputE.exit: ; preds = %33
  %50 = icmp eq ptr %32, null
  br i1 %50, label %_ZN5boost10scoped_ptrIN4i18n12phonenumbers11RegExpInputEED2Ev.exit18, label %51

51:                                               ; preds = %_ZNK4i18n12phonenumbers6RegExp7ConsumeEPNS0_11RegExpInputE.exit
  %52 = load ptr, ptr %32, align 8
  %53 = getelementptr inbounds i8, ptr %52, i64 8
  %54 = load ptr, ptr %53, align 8
  call void %54(ptr noundef nonnull align 8 dereferenceable(8) %32) #19
  br label %_ZN5boost10scoped_ptrIN4i18n12phonenumbers11RegExpInputEED2Ev.exit18

_ZN5boost10scoped_ptrIN4i18n12phonenumbers11RegExpInputEED2Ev.exit18: ; preds = %_ZNK4i18n12phonenumbers6RegExp7ConsumeEPNS0_11RegExpInputE.exit, %51
  br i1 %40, label %59, label %55

55:                                               ; preds = %_ZN5boost10scoped_ptrIN4i18n12phonenumbers11RegExpInputEED2Ev.exit18, %13
  %56 = call noundef zeroext i1 @_ZN4i18n12phonenumbers18PhoneNumberMatcher14ParseAndVerifyERKNSt7__cxx1112basic_stringIcSt11char_traitsIcESaIcEEEiPNS0_16PhoneNumberMatchE(ptr noundef nonnull align 8 dereferenceable(117) %0, ptr noundef nonnull align 8 dereferenceable(32) %1, i32 noundef %2, ptr noundef %3)
  br i1 %56, label %59, label %57

57:                                               ; preds = %55
  %58 = call noundef zeroext i1 @_ZN4i18n12phonenumbers18PhoneNumberMatcher17ExtractInnerMatchERKNSt7__cxx1112basic_stringIcSt11char_traitsIcESaIcEEEiPNS0_16PhoneNumberMatchE(ptr noundef nonnull align 8 dereferenceable(117) %0, ptr noundef nonnull align 8 dereferenceable(32) %1, i32 noundef %2, ptr noundef %3)
  br label %59

59:                                               ; preds = %55, %_ZN5boost10scoped_ptrIN4i18n12phonenumbers11RegExpInputEED2Ev.exit18, %4, %57
  %.1 = phi i1 [ false, %_ZN5boost10scoped_ptrIN4i18n12phonenumbers11RegExpInputEED2Ev.exit18 ], [ %58, %57 ], [ false, %4 ], [ true, %55 ]
  ret i1 %.1

_ZN5boost10scoped_ptrIN4i18n12phonenumbers11RegExpInputEED2Ev.exit: ; preds = %46, %43, %41
  %.pn = phi { ptr, i32 } [ %42, %41 ], [ %44, %43 ], [ %44, %46 ]
  resume { ptr, i32 } %.pn
}